Certificate:
    Data:
        Version: 3 (0x2)
        Serial Number: 1 (0x1)
    Signature Algorithm: sha256WithRSAEncryption
        Issuer: C=CN, ST=guangdong, L=shenzhen, O=itit, OU=itit, CN=yama
        Validity
            Not Before: May  4 09:59:43 2015 GMT
            Not After : May  3 09:59:43 2016 GMT
        Subject: C=CN, ST=guangdong, O=itit, OU=itit, CN=10.44.218.119
        Subject Public Key Info:
            Public Key Algorithm: rsaEncryption
                Public-Key: (2048 bit)
                Modulus:
                    00:cc:cb:09:2e:56:76:89:ea:38:5f:fd:2e:ff:84:
                    f2:f8:ff:8b:e4:ed:fe:34:35:e3:ac:81:40:db:16:
                    3b:38:fe:de:86:b7:45:39:7b:e6:bf:ea:57:6f:a9:
                    01:23:10:7e:e3:e0:a1:16:56:1d:7d:1d:58:98:3f:
                    ae:18:7b:e8:66:a6:df:14:52:83:f0:5e:8b:cd:82:
                    6c:76:fd:c0:08:9c:20:48:ea:60:86:e3:cc:fb:41:
                    4d:ed:09:4e:8a:4b:f9:22:d3:f3:f3:fd:88:f5:e1:
                    d9:b0:f7:40:8f:57:a9:19:3a:ce:aa:0c:70:c3:02:
                    ce:5a:31:4a:3d:e6:98:8c:ee:3d:8d:86:7c:67:55:
                    40:81:4d:77:da:76:25:91:86:4f:2f:6e:3c:1b:9c:
                    69:9d:ee:ed:58:db:f2:b7:8b:e4:bc:ef:0d:cf:e3:
                    78:cf:03:3f:ed:1f:cc:14:22:d3:e9:1a:f4:cf:f2:
                    1c:ac:19:01:8a:45:32:f1:d5:2a:6d:63:27:6d:6f:
                    8f:a2:e3:c8:06:bd:0a:0b:a1:81:27:12:c2:0b:b3:
                    98:1e:f2:91:f7:f1:d9:82:cd:60:b5:de:28:6e:cd:
                    8d:7b:ea:b4:17:21:33:ce:c9:36:1a:3d:e8:63:48:
                    d5:c0:5b:64:9f:e0:fd:0a:fc:f2:06:75:77:b2:35:
                    93:bd
                Exponent: 65537 (0x10001)
        X509v3 extensions:
            X509v3 Basic Constraints: 
                CA:FALSE
            Netscape Comment: 
                OpenSSL Generated Certificate
            X509v3 Subject Key Identifier: 
                1A:EA:03:DD:E2:94:0D:1E:A2:80:A8:DD:50:2A:46:C1:C5:22:16:A7
            X509v3 Authority Key Identifier: 
                keyid:82:3D:74:48:E9:56:A0:08:82:C6:FA:A6:5F:2C:AB:57:8B:7D:71:8C

    Signature Algorithm: sha256WithRSAEncryption
         1f:2f:0e:d4:33:53:06:1d:ff:80:2a:fb:c0:2a:3c:18:1b:8c:
         72:9b:f1:55:06:e7:68:0c:f8:af:00:7c:df:2d:5f:23:9f:22:
         c9:72:99:d1:64:36:fc:c0:32:bb:b1:a1:9a:e3:04:43:b8:3e:
         dc:a7:62:5e:ea:2a:41:40:97:3e:5c:71:2f:44:54:6b:9d:db:
         42:46:fc:24:52:a3:93:a9:93:ef:79:96:1c:97:58:7a:d8:a0:
         16:74:47:c3:d2:a8:fd:37:a6:53:39:17:9c:86:3b:3f:05:9f:
         c7:c4:ce:90:bd:80:61:e3:57:29:76:1e:27:8c:f9:23:59:ca:
         d0:9f:91:ea:9a:e9:2c:f4:e5:b9:7f:2a:39:43:ab:33:25:b3:
         ce:96:3a:95:d4:6e:35:e6:0b:c7:81:e8:bb:85:53:41:a3:bf:
         1a:f8:90:f3:90:35:68:18:30:6b:76:a3:a4:5b:35:61:27:d5:
         ac:51:3d:a0:ad:46:be:07:7b:e1:d0:b6:c6:82:9e:76:95:80:
         c8:e4:48:15:1c:9d:d0:46:0c:5f:2f:9e:03:93:2f:f1:1d:f3:
         13:f6:dc:58:97:19:ec:bd:36:ed:dd:6a:4c:71:e7:63:59:6e:
         f3:14:64:ca:f9:42:05:7a:79:1b:31:41:b0:1a:f9:49:c5:b0:
         a0:d0:3a:be
-----BEGIN CERTIFICATE-----
MIIDrjCCApagAwIBAgIBATANBgkqhkiG9w0BAQsFADBhMQswCQYDVQQGEwJDTjES
MBAGA1UECAwJZ3Vhbmdkb25nMREwDwYDVQQHDAhzaGVuemhlbjENMAsGA1UECgwE
aXRpdDENMAsGA1UECwwEaXRpdDENMAsGA1UEAwwEeWFtYTAeFw0xNTA1MDQwOTU5
NDNaFw0xNjA1MDMwOTU5NDNaMFcxCzAJBgNVBAYTAkNOMRIwEAYDVQQIDAlndWFu
Z2RvbmcxDTALBgNVBAoMBGl0aXQxDTALBgNVBAsMBGl0aXQxFjAUBgNVBAMMDTEw
LjQ0LjIxOC4xMTkwggEiMA0GCSqGSIb3DQEBAQUAA4IBDwAwggEKAoIBAQDMywku
VnaJ6jhf/S7/hPL4/4vk7f40NeOsgUDbFjs4/t6Gt0U5e+a/6ldvqQEjEH7j4KEW
Vh19HViYP64Ye+hmpt8UUoPwXovNgmx2/cAInCBI6mCG48z7QU3tCU6KS/ki0/Pz
/Yj14dmw90CPV6kZOs6qDHDDAs5aMUo95piM7j2NhnxnVUCBTXfadiWRhk8vbjwb
nGmd7u1Y2/K3i+S87w3P43jPAz/tH8wUItPpGvTP8hysGQGKRTLx1SptYydtb4+i
48gGvQoLoYEnEsILs5ge8pH38dmCzWC13ihuzY176rQXITPOyTYaPehjSNXAW2Sf
4P0K/PIGdXeyNZO9AgMBAAGjezB5MAkGA1UdEwQCMAAwLAYJYIZIAYb4QgENBB8W
HU9wZW5TU0wgR2VuZXJhdGVkIENlcnRpZmljYXRlMB0GA1UdDgQWBBQa6gPd4pQN
HqKAqN1QKkbBxSIWpzAfBgNVHSMEGDAWgBSCPXRI6VagCILG+qZfLKtXi31xjDAN
BgkqhkiG9w0BAQsFAAOCAQEAHy8O1DNTBh3/gCr7wCo8GBuMcpvxVQbnaAz4rwB8
3y1fI58iyXKZ0WQ2/MAyu7GhmuMEQ7g+3KdiXuoqQUCXPlxxL0RUa53bQkb8JFKj
k6mT73mWHJdYetigFnRHw9Ko/TemUzkXnIY7PwWfx8TOkL2AYeNXKXYeJ4z5I1nK
0J+R6prpLPTluX8qOUOrMyWzzpY6ldRuNeYLx4Hou4VTQaO/GviQ85A1aBgwa3aj
pFs1YSfVrFE9oK1Gvgd74dC2xoKedpWAyORIFRyd0EYMXy+eA5Mv8R3zE/bcWJcZ
7L027d1qTHHnY1lu8xRkyvlCBXp5GzFBsBr5ScWwoNA6vg==
-----END CERTIFICATE-----
