Certificate:
    Data:
        Version: 3 (0x2)
        Serial Number: 1 (0x1)
        Signature Algorithm: sha1WithRSAEncryption
        Issuer: C=CN, ST=guangdong, L=shenzhen, O=JazminServer, OU=RelayServer, CN=JazminServer
        Validity
            Not Before: May  5 14:19:54 2015 GMT
            Not After : May  4 14:19:54 2016 GMT
        Subject: C=CN, ST=guangdong, O=JazminServer, OU=RelayServer, CN=JazminServer
        Subject Public Key Info:
            Public Key Algorithm: rsaEncryption
            RSA Public Key: (1024 bit)
                Modulus (1024 bit):
                    00:ae:9a:31:26:c9:e2:31:e9:65:8a:0c:80:90:4e:
                    49:71:3a:20:9a:36:79:d3:8a:66:6a:03:f8:35:2a:
                    1e:ef:1b:5c:7f:9d:e9:f5:1d:3f:76:60:05:2f:48:
                    58:86:b1:4b:81:15:6f:d8:c4:26:cc:89:12:84:d0:
                    04:2b:70:f8:6e:92:4f:86:94:2a:34:5c:ed:9f:e5:
                    53:5b:40:13:5e:ad:77:09:9f:9a:6e:da:7e:44:5d:
                    0e:94:7a:ef:4d:25:2f:f2:32:eb:57:23:7e:d5:be:
                    a3:36:26:64:1b:27:c3:09:bf:d3:2c:d1:b0:b5:8c:
                    16:4a:02:d3:7a:23:e7:b9:f5
                Exponent: 65537 (0x10001)
        X509v3 extensions:
            X509v3 Basic Constraints: 
                CA:FALSE
            Netscape Comment: 
                OpenSSL Generated Certificate
            X509v3 Subject Key Identifier: 
                EF:C1:27:25:4D:4B:A9:7D:40:59:07:A6:4D:8A:13:AF:15:23:49:C5
            X509v3 Authority Key Identifier: 
                keyid:6A:F5:23:34:2E:DB:81:07:4E:7F:F7:55:A3:53:9F:DE:32:A7:7D:1F

    Signature Algorithm: sha1WithRSAEncryption
        88:de:50:f4:c5:a7:db:0d:d5:a1:ef:2b:99:8a:2b:0c:f5:02:
        44:bb:42:52:27:bf:ae:16:a0:91:88:d8:1d:9f:48:64:87:0e:
        65:cc:dc:1a:76:6e:c3:7c:86:1a:da:47:21:8c:04:17:ed:75:
        36:9d:1b:30:9a:bb:5f:9b:91:0a:a2:b3:70:b1:4e:23:79:9e:
        c8:37:8b:09:cc:23:fe:a2:be:11:57:9b:67:9d:22:66:17:6b:
        d3:72:19:3f:b2:13:12:0a:0c:4b:35:ef:ba:0c:20:42:fb:e4:
        6d:3e:0b:23:a7:bb:8d:3d:83:a8:72:ed:a8:09:c1:2c:91:02:
        15:c3
-----BEGIN CERTIFICATE-----
MIICzjCCAjegAwIBAgIBATANBgkqhkiG9w0BAQUFADB4MQswCQYDVQQGEwJDTjES
MBAGA1UECBMJZ3Vhbmdkb25nMREwDwYDVQQHEwhzaGVuemhlbjEVMBMGA1UEChMM
SmF6bWluU2VydmVyMRQwEgYDVQQLEwtSZWxheVNlcnZlcjEVMBMGA1UEAxMMSmF6
bWluU2VydmVyMB4XDTE1MDUwNTE0MTk1NFoXDTE2MDUwNDE0MTk1NFowZTELMAkG
A1UEBhMCQ04xEjAQBgNVBAgTCWd1YW5nZG9uZzEVMBMGA1UEChMMSmF6bWluU2Vy
dmVyMRQwEgYDVQQLEwtSZWxheVNlcnZlcjEVMBMGA1UEAxMMSmF6bWluU2VydmVy
MIGfMA0GCSqGSIb3DQEBAQUAA4GNADCBiQKBgQCumjEmyeIx6WWKDICQTklxOiCa
NnnTimZqA/g1Kh7vG1x/nen1HT92YAUvSFiGsUuBFW/YxCbMiRKE0AQrcPhukk+G
lCo0XO2f5VNbQBNerXcJn5pu2n5EXQ6Ueu9NJS/yMutXI37VvqM2JmQbJ8MJv9Ms
0bC1jBZKAtN6I+e59QIDAQABo3sweTAJBgNVHRMEAjAAMCwGCWCGSAGG+EIBDQQf
Fh1PcGVuU1NMIEdlbmVyYXRlZCBDZXJ0aWZpY2F0ZTAdBgNVHQ4EFgQU78EnJU1L
qX1AWQemTYoTrxUjScUwHwYDVR0jBBgwFoAUavUjNC7bgQdOf/dVo1Of3jKnfR8w
DQYJKoZIhvcNAQEFBQADgYEAiN5Q9MWn2w3Voe8rmYorDPUCRLtCUie/rhagkYjY
HZ9IZIcOZczcGnZuw3yGGtpHIYwEF+11Np0bMJq7X5uRCqKzcLFOI3meyDeLCcwj
/qK+EVebZ50iZhdr03IZP7ITEgoMSzXvugwgQvvkbT4LI6e7jT2DqHLtqAnBLJEC
FcM=
-----END CERTIFICATE-----
